target datalayout = "e-m:e-p270:32:32-p271:32:32-p272:64:64-i64:64-i128:128-f80:128-n8:16:32:64-S128"
target triple = "x86_64-pc-linux-gnu"

%struct.AVFilterContext = type { ptr, ptr, ptr, ptr, ptr, i32, ptr, ptr, i32, ptr, ptr, i32, i32, ptr, ptr, ptr, ptr, i32, ptr, i32, i32 }
%struct.CurvesContext = type { ptr, i32, [4 x ptr], ptr, [4 x ptr], i32, ptr, [4 x i8], i32, ptr, i32, i32, i32, i32, i32, ptr }

@.str.17 = private unnamed_addr constant [4 x i8] c"red\00", align 1
@.str.18 = private unnamed_addr constant [6 x i8] c"green\00", align 1
@.str.19 = private unnamed_addr constant [5 x i8] c"blue\00", align 1
@.str.35 = private unnamed_addr constant [7 x i8] c"preset\00", align 1
@.str.49 = private unnamed_addr constant [7 x i8] c"master\00", align 1
@.str.51 = private unnamed_addr constant [2 x i8] c"m\00", align 1
@.str.53 = private unnamed_addr constant [2 x i8] c"r\00", align 1
@.str.55 = private unnamed_addr constant [2 x i8] c"g\00", align 1
@.str.57 = private unnamed_addr constant [2 x i8] c"b\00", align 1
@.str.58 = private unnamed_addr constant [4 x i8] c"all\00", align 1
@.str.60 = private unnamed_addr constant [7 x i8] c"psfile\00", align 1
@.str.62 = private unnamed_addr constant [5 x i8] c"plot\00", align 1
@.str.64 = private unnamed_addr constant [7 x i8] c"interp\00", align 1

; Function Attrs: nounwind uwtable
define internal i32 @process_command(ptr noundef %0, ptr noundef %1, ptr noundef %2, ptr noundef %3, i32 noundef %4, i32 noundef %5) #1 {
  %7 = alloca i32, align 4
  %8 = alloca ptr, align 8
  %9 = alloca ptr, align 8
  %10 = alloca ptr, align 8
  %11 = alloca ptr, align 8
  %12 = alloca i32, align 4
  %13 = alloca i32, align 4
  %14 = alloca ptr, align 8
  %15 = alloca i32, align 4
  %16 = alloca i32, align 4
  store ptr %0, ptr %8, align 8, !tbaa !4
  store ptr %1, ptr %9, align 8, !tbaa !28
  store ptr %2, ptr %10, align 8, !tbaa !28
  store ptr %3, ptr %11, align 8, !tbaa !28
  store i32 %4, ptr %12, align 4, !tbaa !29
  store i32 %5, ptr %13, align 4, !tbaa !29
  call void @llvm.lifetime.start.p0(i64 8, ptr %14) #11
  %17 = load ptr, ptr %8, align 8, !tbaa !4
  %18 = getelementptr inbounds nuw %struct.AVFilterContext, ptr %17, i32 0, i32 9
  %19 = load ptr, ptr %18, align 8, !tbaa !9
  store ptr %19, ptr %14, align 8, !tbaa !22
  call void @llvm.lifetime.start.p0(i64 4, ptr %15) #11
  %20 = load ptr, ptr %9, align 8, !tbaa !28
  %21 = call i32 @strcmp(ptr noundef %20, ptr noundef @.str.62) #12
  %22 = icmp ne i32 %21, 0
  br i1 %22, label %26, label %23

23:                                               ; preds = %6
  %24 = load ptr, ptr %14, align 8, !tbaa !22
  %25 = getelementptr inbounds nuw %struct.CurvesContext, ptr %24, i32 0, i32 10
  store i32 0, ptr %25, align 8, !tbaa !41
  br label %117

26:                                               ; preds = %6
  %27 = load ptr, ptr %9, align 8, !tbaa !28
  %28 = call i32 @strcmp(ptr noundef %27, ptr noundef @.str.58) #12
  %29 = icmp ne i32 %28, 0
  br i1 %29, label %30, label %42

30:                                               ; preds = %26
  %31 = load ptr, ptr %9, align 8, !tbaa !28
  %32 = call i32 @strcmp(ptr noundef %31, ptr noundef @.str.35) #12
  %33 = icmp ne i32 %32, 0
  br i1 %33, label %34, label %42

34:                                               ; preds = %30
  %35 = load ptr, ptr %9, align 8, !tbaa !28
  %36 = call i32 @strcmp(ptr noundef %35, ptr noundef @.str.60) #12
  %37 = icmp ne i32 %36, 0
  br i1 %37, label %38, label %42

38:                                               ; preds = %34
  %39 = load ptr, ptr %9, align 8, !tbaa !28
  %40 = call i32 @strcmp(ptr noundef %39, ptr noundef @.str.64) #12
  %41 = icmp ne i32 %40, 0
  br i1 %41, label %64, label %42

42:                                               ; preds = %38, %34, %30, %26
  %43 = load ptr, ptr %9, align 8, !tbaa !28
  %44 = call i32 @strcmp(ptr noundef %43, ptr noundef @.str.60) #12
  %45 = icmp ne i32 %44, 0
  br i1 %45, label %49, label %46

46:                                               ; preds = %42
  %47 = load ptr, ptr %14, align 8, !tbaa !22
  %48 = getelementptr inbounds nuw %struct.CurvesContext, ptr %47, i32 0, i32 13
  store i32 0, ptr %48, align 4, !tbaa !33
  br label %49

49:                                               ; preds = %46, %42
  %50 = load ptr, ptr %14, align 8, !tbaa !22
  %51 = getelementptr inbounds nuw %struct.CurvesContext, ptr %50, i32 0, i32 3
  call void @av_freep(ptr noundef %51)
  %52 = load ptr, ptr %14, align 8, !tbaa !22
  %53 = getelementptr inbounds nuw %struct.CurvesContext, ptr %52, i32 0, i32 2
  %54 = getelementptr inbounds [4 x ptr], ptr %53, i64 0, i64 0
  call void @av_freep(ptr noundef %54)
  %55 = load ptr, ptr %14, align 8, !tbaa !22
  %56 = getelementptr inbounds nuw %struct.CurvesContext, ptr %55, i32 0, i32 2
  %57 = getelementptr inbounds [4 x ptr], ptr %56, i64 0, i64 1
  call void @av_freep(ptr noundef %57)
  %58 = load ptr, ptr %14, align 8, !tbaa !22
  %59 = getelementptr inbounds nuw %struct.CurvesContext, ptr %58, i32 0, i32 2
  %60 = getelementptr inbounds [4 x ptr], ptr %59, i64 0, i64 2
  call void @av_freep(ptr noundef %60)
  %61 = load ptr, ptr %14, align 8, !tbaa !22
  %62 = getelementptr inbounds nuw %struct.CurvesContext, ptr %61, i32 0, i32 2
  %63 = getelementptr inbounds [4 x ptr], ptr %62, i64 0, i64 3
  call void @av_freep(ptr noundef %63)
  br label %116

64:                                               ; preds = %38
  %65 = load ptr, ptr %9, align 8, !tbaa !28
  %66 = call i32 @strcmp(ptr noundef %65, ptr noundef @.str.17) #12
  %67 = icmp ne i32 %66, 0
  br i1 %67, label %68, label %72

68:                                               ; preds = %64
  %69 = load ptr, ptr %9, align 8, !tbaa !28
  %70 = call i32 @strcmp(ptr noundef %69, ptr noundef @.str.53) #12
  %71 = icmp ne i32 %70, 0
  br i1 %71, label %76, label %72

72:                                               ; preds = %68, %64
  %73 = load ptr, ptr %14, align 8, !tbaa !22
  %74 = getelementptr inbounds nuw %struct.CurvesContext, ptr %73, i32 0, i32 2
  %75 = getelementptr inbounds [4 x ptr], ptr %74, i64 0, i64 0
  call void @av_freep(ptr noundef %75)
  br label %115

76:                                               ; preds = %68
  %77 = load ptr, ptr %9, align 8, !tbaa !28
  %78 = call i32 @strcmp(ptr noundef %77, ptr noundef @.str.18) #12
  %79 = icmp ne i32 %78, 0
  br i1 %79, label %80, label %84

80:                                               ; preds = %76
  %81 = load ptr, ptr %9, align 8, !tbaa !28
  %82 = call i32 @strcmp(ptr noundef %81, ptr noundef @.str.55) #12
  %83 = icmp ne i32 %82, 0
  br i1 %83, label %88, label %84

84:                                               ; preds = %80, %76
  %85 = load ptr, ptr %14, align 8, !tbaa !22
  %86 = getelementptr inbounds nuw %struct.CurvesContext, ptr %85, i32 0, i32 2
  %87 = getelementptr inbounds [4 x ptr], ptr %86, i64 0, i64 1
  call void @av_freep(ptr noundef %87)
  br label %114

88:                                               ; preds = %80
  %89 = load ptr, ptr %9, align 8, !tbaa !28
  %90 = call i32 @strcmp(ptr noundef %89, ptr noundef @.str.19) #12
  %91 = icmp ne i32 %90, 0
  br i1 %91, label %92, label %96

92:                                               ; preds = %88
  %93 = load ptr, ptr %9, align 8, !tbaa !28
  %94 = call i32 @strcmp(ptr noundef %93, ptr noundef @.str.57) #12
  %95 = icmp ne i32 %94, 0
  br i1 %95, label %100, label %96

96:                                               ; preds = %92, %88
  %97 = load ptr, ptr %14, align 8, !tbaa !22
  %98 = getelementptr inbounds nuw %struct.CurvesContext, ptr %97, i32 0, i32 2
  %99 = getelementptr inbounds [4 x ptr], ptr %98, i64 0, i64 2
  call void @av_freep(ptr noundef %99)
  br label %113

100:                                              ; preds = %92
  %101 = load ptr, ptr %9, align 8, !tbaa !28
  %102 = call i32 @strcmp(ptr noundef %101, ptr noundef @.str.49) #12
  %103 = icmp ne i32 %102, 0
  br i1 %103, label %104, label %108

104:                                              ; preds = %100
  %105 = load ptr, ptr %9, align 8, !tbaa !28
  %106 = call i32 @strcmp(ptr noundef %105, ptr noundef @.str.51) #12
  %107 = icmp ne i32 %106, 0
  br i1 %107, label %112, label %108

108:                                              ; preds = %104, %100
  %109 = load ptr, ptr %14, align 8, !tbaa !22
  %110 = getelementptr inbounds nuw %struct.CurvesContext, ptr %109, i32 0, i32 2
  %111 = getelementptr inbounds [4 x ptr], ptr %110, i64 0, i64 3
  call void @av_freep(ptr noundef %111)
  br label %112

112:                                              ; preds = %108, %104
  br label %113

113:                                              ; preds = %112, %96
  br label %114

114:                                              ; preds = %113, %84
  br label %115

115:                                              ; preds = %114, %72
  br label %116

116:                                              ; preds = %115, %49
  br label %117

117:                                              ; preds = %116, %23
  %118 = load ptr, ptr %8, align 8, !tbaa !4
  %119 = load ptr, ptr %9, align 8, !tbaa !28
  %120 = load ptr, ptr %10, align 8, !tbaa !28
  %121 = load ptr, ptr %11, align 8, !tbaa !28
  %122 = load i32, ptr %12, align 4, !tbaa !29
  %123 = load i32, ptr %13, align 4, !tbaa !29
  %124 = call i32 @ff_filter_process_command(ptr noundef %118, ptr noundef %119, ptr noundef %120, ptr noundef %121, i32 noundef %122, i32 noundef %123)
  store i32 %124, ptr %15, align 4, !tbaa !29
  %125 = load i32, ptr %15, align 4, !tbaa !29
  %126 = icmp slt i32 %125, 0
  br i1 %126, label %127, label %129

127:                                              ; preds = %117
  %128 = load i32, ptr %15, align 4, !tbaa !29
  store i32 %128, ptr %7, align 4
  store i32 1, ptr %16, align 4
  br label %143

129:                                              ; preds = %117
  %130 = load ptr, ptr %8, align 8, !tbaa !4
  %131 = call i32 @curves_init(ptr noundef %130) #13
  store i32 %131, ptr %15, align 4, !tbaa !29
  %132 = load i32, ptr %15, align 4, !tbaa !29
  %133 = icmp slt i32 %132, 0
  br i1 %133, label %134, label %136

134:                                              ; preds = %129
  %135 = load i32, ptr %15, align 4, !tbaa !29
  store i32 %135, ptr %7, align 4
  store i32 1, ptr %16, align 4
  br label %143

136:                                              ; preds = %129
  %137 = load ptr, ptr %8, align 8, !tbaa !4
  %138 = getelementptr inbounds nuw %struct.AVFilterContext, ptr %137, i32 0, i32 4
  %139 = load ptr, ptr %138, align 8, !tbaa !42
  %140 = getelementptr inbounds ptr, ptr %139, i64 0
  %141 = load ptr, ptr %140, align 8, !tbaa !43
  %142 = call i32 @config_input(ptr noundef %141)
  store i32 %142, ptr %7, align 4
  store i32 1, ptr %16, align 4
  br label %143

143:                                              ; preds = %136, %134, %127
  call void @llvm.lifetime.end.p0(i64 4, ptr %15) #11
  call void @llvm.lifetime.end.p0(i64 8, ptr %14) #11
  %144 = load i32, ptr %7, align 4
  ret i32 %144
}