; Function Attrs: nounwind uwtable
define internal range(i32 -2147483648, 1) i32 @process_command(ptr noundef %0, ptr noundef %1, ptr noundef %2, ptr noundef %3, i32 noundef %4, i32 noundef %5) #1 {
  %7 = getelementptr inbounds nuw i8, ptr %0, i64 72
  %8 = load ptr, ptr %7, align 8, !tbaa !4
  %9 = tail call i32 @strcmp(ptr noundef nonnull dereferenceable(1) %1, ptr noundef nonnull dereferenceable(5) @.str.62) #14
  %.not = icmp eq i32 %9, 0
  br i1 %.not, label %10, label %12

10:                                               ; preds = %6
  %11 = getelementptr inbounds nuw i8, ptr %8, i64 120
  store i32 0, ptr %11, align 8, !tbaa !42
  br label %.tail61.thread

12:                                               ; preds = %6
  %13 = tail call i32 @strcmp(ptr noundef nonnull dereferenceable(1) %1, ptr noundef nonnull dereferenceable(4) @.str.58) #14
  %.not40 = icmp eq i32 %13, 0
  br i1 %.not40, label %20, label %14

14:                                               ; preds = %12
  %15 = tail call i32 @strcmp(ptr noundef nonnull dereferenceable(1) %1, ptr noundef nonnull dereferenceable(7) @.str.35) #14
  %.not41 = icmp eq i32 %15, 0
  br i1 %.not41, label %20, label %16

16:                                               ; preds = %14
  %17 = tail call i32 @strcmp(ptr noundef nonnull dereferenceable(1) %1, ptr noundef nonnull dereferenceable(7) @.str.60) #14
  %.not42 = icmp eq i32 %17, 0
  br i1 %.not42, label %20, label %18

18:                                               ; preds = %16
  %19 = tail call i32 @strcmp(ptr noundef nonnull dereferenceable(1) %1, ptr noundef nonnull dereferenceable(7) @.str.64) #14
  %.not43 = icmp eq i32 %19, 0
  br i1 %.not43, label %20, label %30

20:                                               ; preds = %18, %16, %14, %12
  %21 = tail call i32 @strcmp(ptr noundef nonnull dereferenceable(1) %1, ptr noundef nonnull dereferenceable(7) @.str.60) #14
  %.not44 = icmp eq i32 %21, 0
  br i1 %.not44, label %22, label %24

22:                                               ; preds = %20
  %23 = getelementptr inbounds nuw i8, ptr %8, i64 132
  store i32 0, ptr %23, align 4, !tbaa !26
  br label %24

24:                                               ; preds = %22, %20
  %25 = getelementptr inbounds nuw i8, ptr %8, i64 48
  tail call void @av_freep(ptr noundef nonnull %25) #13
  %26 = getelementptr inbounds nuw i8, ptr %8, i64 16
  tail call void @av_freep(ptr noundef nonnull %26) #13
  %27 = getelementptr inbounds nuw i8, ptr %8, i64 24
  tail call void @av_freep(ptr noundef nonnull %27) #13
  %28 = getelementptr inbounds nuw i8, ptr %8, i64 32
  tail call void @av_freep(ptr noundef nonnull %28) #13
  %29 = getelementptr inbounds nuw i8, ptr %8, i64 40
  tail call void @av_freep(ptr noundef nonnull %29) #13
  br label %.tail61.thread

30:                                               ; preds = %18
  %31 = tail call i32 @strcmp(ptr noundef nonnull dereferenceable(1) %1, ptr noundef nonnull dereferenceable(4) @.str.17) #14
  %.not45 = icmp eq i32 %31, 0
  br i1 %.not45, label %36, label %sub_0

sub_0:                                            ; preds = %30
  %32 = load i8, ptr %1, align 1
  %.not65 = icmp eq i8 %32, 114
  br i1 %.not65, label %.tail, label %.tail.thread

.tail:                                            ; preds = %sub_0
  %33 = getelementptr inbounds nuw i8, ptr %1, i64 1
  %34 = load i8, ptr %33, align 1
  %35 = icmp eq i8 %34, 0
  br i1 %35, label %36, label %.thread

36:                                               ; preds = %.tail, %30
  %37 = getelementptr inbounds nuw i8, ptr %8, i64 16
  tail call void @av_freep(ptr noundef nonnull %37) #13
  br label %.tail61.thread

.tail.thread:                                     ; preds = %sub_0
  %38 = tail call i32 @strcmp(ptr noundef nonnull dereferenceable(1) %1, ptr noundef nonnull dereferenceable(6) @.str.18) #14
  %.not47 = icmp eq i32 %38, 0
  br i1 %.not47, label %43, label %sub_054

.thread:                                          ; preds = %.tail
  %39 = tail call i32 @strcmp(ptr noundef nonnull dereferenceable(1) %1, ptr noundef nonnull dereferenceable(6) @.str.18) #14
  %.not4770 = icmp eq i32 %39, 0
  br i1 %.not4770, label %43, label %.tail53.thread.thread

sub_054:                                          ; preds = %.tail.thread
  %.not66 = icmp eq i8 %32, 103
  br i1 %.not66, label %.tail53, label %.tail53.thread

.tail53:                                          ; preds = %sub_054
  %40 = getelementptr inbounds nuw i8, ptr %1, i64 1
  %41 = load i8, ptr %40, align 1
  %42 = icmp eq i8 %41, 0
  br i1 %42, label %43, label %.thread73

43:                                               ; preds = %.thread, %.tail53, %.tail.thread
  %44 = getelementptr inbounds nuw i8, ptr %8, i64 24
  tail call void @av_freep(ptr noundef nonnull %44) #13
  br label %.tail61.thread

.tail53.thread:                                   ; preds = %sub_054
  %45 = tail call i32 @strcmp(ptr noundef nonnull dereferenceable(1) %1, ptr noundef nonnull dereferenceable(5) @.str.19) #14
  %.not49 = icmp eq i32 %45, 0
  br i1 %.not49, label %51, label %sub_058

.tail53.thread.thread:                            ; preds = %.thread
  %46 = tail call i32 @strcmp(ptr noundef nonnull dereferenceable(1) %1, ptr noundef nonnull dereferenceable(5) @.str.19) #14
  %.not4981 = icmp eq i32 %46, 0
  br i1 %.not4981, label %51, label %.tail57.thread

.thread73:                                        ; preds = %.tail53
  %47 = tail call i32 @strcmp(ptr noundef nonnull dereferenceable(1) %1, ptr noundef nonnull dereferenceable(5) @.str.19) #14
  %.not4974 = icmp eq i32 %47, 0
  br i1 %.not4974, label %51, label %.tail57.thread

sub_058:                                          ; preds = %.tail53.thread
  %.not67 = icmp eq i8 %32, 98
  br i1 %.not67, label %.tail57, label %.tail57.thread

.tail57:                                          ; preds = %sub_058
  %48 = getelementptr inbounds nuw i8, ptr %1, i64 1
  %49 = load i8, ptr %48, align 1
  %50 = icmp eq i8 %49, 0
  br i1 %50, label %51, label %.thread77

51:                                               ; preds = %.tail53.thread.thread, %.thread73, %.tail57, %.tail53.thread
  %52 = getelementptr inbounds nuw i8, ptr %8, i64 32
  tail call void @av_freep(ptr noundef nonnull %52) #13
  br label %.tail61.thread

.tail57.thread:                                   ; preds = %.tail53.thread.thread, %.thread73, %sub_058
  %53 = tail call i32 @strcmp(ptr noundef nonnull dereferenceable(1) %1, ptr noundef nonnull dereferenceable(7) @.str.49) #14
  %.not51 = icmp eq i32 %53, 0
  br i1 %.not51, label %58, label %sub_062

.thread77:                                        ; preds = %.tail57
  %54 = tail call i32 @strcmp(ptr noundef nonnull dereferenceable(1) %1, ptr noundef nonnull dereferenceable(7) @.str.49) #14
  %.not5178 = icmp eq i32 %54, 0
  br i1 %.not5178, label %58, label %.tail61.thread

sub_062:                                          ; preds = %.tail57.thread
  %.not68 = icmp eq i8 %32, 109
  br i1 %.not68, label %.tail61, label %.tail61.thread

.tail61:                                          ; preds = %sub_062
  %55 = getelementptr inbounds nuw i8, ptr %1, i64 1
  %56 = load i8, ptr %55, align 1
  %57 = icmp eq i8 %56, 0
  br i1 %57, label %58, label %.tail61.thread

58:                                               ; preds = %.thread77, %.tail61, %.tail57.thread
  %59 = getelementptr inbounds nuw i8, ptr %8, i64 40
  tail call void @av_freep(ptr noundef nonnull %59) #13
  br label %.tail61.thread

.tail61.thread:                                   ; preds = %.thread77, %sub_062, %24, %43, %.tail61, %58, %51, %36, %10
  %60 = tail call i32 @ff_filter_process_command(ptr noundef nonnull %0, ptr noundef nonnull %1, ptr noundef %2, ptr noundef %3, i32 noundef %4, i32 noundef %5) #13
  %61 = icmp slt i32 %60, 0
  br i1 %61, label %70, label %62

62:                                               ; preds = %.tail61.thread
  %63 = tail call i32 @curves_init(ptr noundef nonnull %0) #15
  %64 = icmp slt i32 %63, 0
  br i1 %64, label %70, label %65

65:                                               ; preds = %62
  %66 = getelementptr inbounds nuw i8, ptr %0, i64 32
  %67 = load ptr, ptr %66, align 8, !tbaa !43
  %68 = load ptr, ptr %67, align 8, !tbaa !44
  %69 = tail call i32 @config_input(ptr noundef %68)
  br label %70

70:                                               ; preds = %62, %.tail61.thread, %65
  %.0 = phi i32 [ %69, %65 ], [ %60, %.tail61.thread ], [ %63, %62 ]
  ret i32 %.0
}